target datalayout = "e-m:e-p270:32:32-p271:32:32-p272:64:64-i64:64-i128:128-f80:128-n8:16:32:64-S128"
target triple = "x86_64-pc-linux-gnu"

%"struct.c4::yml::Callbacks" = type { ptr, ptr, ptr, ptr }
%"struct.c4::basic_substring.0" = type { ptr, i64 }
%"struct.c4::basic_substring" = type { ptr, i64 }
%"struct.c4::yml::Location" = type { %"struct.c4::yml::LineCol", %"struct.c4::basic_substring.0" }
%"struct.c4::yml::LineCol" = type { i64, i64, i64 }
%"class.c4::yml::Parser" = type { %"struct.c4::yml::ParserOptions", %"struct.c4::basic_substring.0", %"struct.c4::basic_substring", i64, ptr, %"class.c4::yml::detail::stack.5", ptr, i64, i64, %"struct.c4::basic_substring.0", %"struct.c4::basic_substring.0", i64, %"struct.c4::basic_substring.0", i8, i64, %"struct.c4::basic_substring.0", i64, %"struct.c4::basic_substring.0", %"struct.c4::basic_substring", ptr, i64, i64, %"struct.c4::basic_substring.0" }
%"struct.c4::yml::ParserOptions" = type { i32 }
%"class.c4::yml::detail::stack.5" = type { [16 x %"struct.c4::yml::Parser::State"], ptr, i64, i64, %"struct.c4::yml::Callbacks" }
%"struct.c4::yml::Parser::State" = type { i32, i64, i64, %"struct.c4::basic_substring.0", i64, %"struct.c4::yml::Location", %"struct.c4::yml::Parser::LineContents", i64 }
%"struct.c4::yml::Parser::LineContents" = type { %"struct.c4::basic_substring.0", %"struct.c4::basic_substring.0", %"struct.c4::basic_substring.0", i64 }

; Function Attrs: mustprogress nounwind uwtable
define linkonce_odr void @_ZN2c43yml6detail5stackINS0_6Parser5StateELm16EE5clearEv(ptr noundef nonnull align 8 dereferenceable(2488) %0) #0 comdat align 2 {
  %2 = alloca ptr, align 8
  store ptr %0, ptr %2, align 8, !tbaa !241
  %3 = load ptr, ptr %2, align 8
  %4 = getelementptr inbounds nuw %"class.c4::yml::detail::stack.5", ptr %3, i32 0, i32 2
  store i64 0, ptr %4, align 8, !tbaa !244
  ret void
}

; Function Attrs: mustprogress nounwind uwtable
define linkonce_odr noundef nonnull align 8 dereferenceable(16) ptr @_ZN2c415basic_substringIcEaSEDn(ptr noundef nonnull align 8 dereferenceable(16) %0, ptr %1) #0 comdat align 2 {
  %3 = alloca ptr, align 8
  %4 = alloca ptr, align 8
  store ptr %0, ptr %3, align 8, !tbaa !30
  store ptr %1, ptr %4, align 8, !tbaa !140
  %5 = load ptr, ptr %3, align 8
  %6 = getelementptr inbounds nuw %"struct.c4::basic_substring", ptr %5, i32 0, i32 0
  store ptr null, ptr %6, align 8, !tbaa !6
  %7 = getelementptr inbounds nuw %"struct.c4::basic_substring", ptr %5, i32 0, i32 1
  store i64 0, ptr %7, align 8, !tbaa !14
  ret ptr %5
}

; Function Attrs: mustprogress nounwind uwtable
define linkonce_odr noundef nonnull align 8 dereferenceable(16) ptr @_ZN2c415basic_substringIKcEaSEDn(ptr noundef nonnull align 8 dereferenceable(16) %0, ptr %1) #0 comdat align 2 {
  %3 = alloca ptr, align 8
  %4 = alloca ptr, align 8
  store ptr %0, ptr %3, align 8, !tbaa !45
  store ptr %1, ptr %4, align 8, !tbaa !140
  %5 = load ptr, ptr %3, align 8
  %6 = getelementptr inbounds nuw %"struct.c4::basic_substring.0", ptr %5, i32 0, i32 0
  store ptr null, ptr %6, align 8, !tbaa !37
  %7 = getelementptr inbounds nuw %"struct.c4::basic_substring.0", ptr %5, i32 0, i32 1
  store i64 0, ptr %7, align 8, !tbaa !39
  ret ptr %5
}

; Function Attrs: mustprogress nounwind uwtable
define linkonce_odr void @_ZN2c43yml13ParserOptionsC2Ev(ptr noundef nonnull align 4 dereferenceable(4) %0) unnamed_addr #0 comdat align 2 {
  %2 = alloca ptr, align 8
  store ptr %0, ptr %2, align 8, !tbaa !256
  %3 = load ptr, ptr %2, align 8
  %4 = getelementptr inbounds nuw %"struct.c4::yml::ParserOptions", ptr %3, i32 0, i32 0
  store i32 0, ptr %4, align 4, !tbaa !258
  ret void
}

; Function Attrs: mustprogress uwtable
define void @_ZN2c43yml6Parser4_clrEv(ptr noundef nonnull align 8 dereferenceable(2736) %0) #1 align 2 {
  %2 = alloca ptr, align 8
  %3 = alloca %"struct.c4::yml::ParserOptions", align 4
  store ptr %0, ptr %2, align 8, !tbaa !218
  %4 = load ptr, ptr %2, align 8
  call void @llvm.lifetime.start.p0(i64 4, ptr %3) #25
  call void @llvm.memset.p0.i64(ptr align 4 %3, i8 0, i64 4, i1 false)
  call void @_ZN2c43yml13ParserOptionsC2Ev(ptr noundef nonnull align 4 dereferenceable(4) %3) #25
  %5 = getelementptr inbounds nuw %"class.c4::yml::Parser", ptr %4, i32 0, i32 0
  call void @llvm.memcpy.p0.p0.i64(ptr align 8 %5, ptr align 4 %3, i64 4, i1 false), !tbaa.struct !231
  call void @llvm.lifetime.end.p0(i64 4, ptr %3) #25
  %6 = getelementptr inbounds nuw %"class.c4::yml::Parser", ptr %4, i32 0, i32 1
  %7 = call noundef nonnull align 8 dereferenceable(16) ptr @_ZN2c415basic_substringIKcEaSEDn(ptr noundef nonnull align 8 dereferenceable(16) %6, ptr null)
  %8 = getelementptr inbounds nuw %"class.c4::yml::Parser", ptr %4, i32 0, i32 2
  %9 = call noundef nonnull align 8 dereferenceable(16) ptr @_ZN2c415basic_substringIcEaSEDn(ptr noundef nonnull align 8 dereferenceable(16) %8, ptr null)
  %10 = getelementptr inbounds nuw %"class.c4::yml::Parser", ptr %4, i32 0, i32 3
  store i64 0, ptr %10, align 8, !tbaa !232
  %11 = getelementptr inbounds nuw %"class.c4::yml::Parser", ptr %4, i32 0, i32 4
  store ptr null, ptr %11, align 8, !tbaa !233
  %12 = getelementptr inbounds nuw %"class.c4::yml::Parser", ptr %4, i32 0, i32 5
  call void @_ZN2c43yml6detail5stackINS0_6Parser5StateELm16EE5clearEv(ptr noundef nonnull align 8 dereferenceable(2488) %12)
  %13 = getelementptr inbounds nuw %"class.c4::yml::Parser", ptr %4, i32 0, i32 6
  store ptr null, ptr %13, align 8, !tbaa !234
  %14 = getelementptr inbounds nuw %"class.c4::yml::Parser", ptr %4, i32 0, i32 7
  store i64 0, ptr %14, align 8, !tbaa !235
  %15 = getelementptr inbounds nuw %"class.c4::yml::Parser", ptr %4, i32 0, i32 8
  store i64 0, ptr %15, align 8, !tbaa !236
  %16 = getelementptr inbounds nuw %"class.c4::yml::Parser", ptr %4, i32 0, i32 9
  %17 = call noundef nonnull align 8 dereferenceable(16) ptr @_ZN2c415basic_substringIKcEaSEDn(ptr noundef nonnull align 8 dereferenceable(16) %16, ptr null)
  %18 = getelementptr inbounds nuw %"class.c4::yml::Parser", ptr %4, i32 0, i32 10
  %19 = call noundef nonnull align 8 dereferenceable(16) ptr @_ZN2c415basic_substringIKcEaSEDn(ptr noundef nonnull align 8 dereferenceable(16) %18, ptr null)
  %20 = getelementptr inbounds nuw %"class.c4::yml::Parser", ptr %4, i32 0, i32 11
  store i64 0, ptr %20, align 8, !tbaa !237
  %21 = getelementptr inbounds nuw %"class.c4::yml::Parser", ptr %4, i32 0, i32 12
  %22 = call noundef nonnull align 8 dereferenceable(16) ptr @_ZN2c415basic_substringIKcEaSEDn(ptr noundef nonnull align 8 dereferenceable(16) %21, ptr null)
  %23 = getelementptr inbounds nuw %"class.c4::yml::Parser", ptr %4, i32 0, i32 13
  store i8 0, ptr %23, align 8, !tbaa !238
  %24 = getelementptr inbounds nuw %"class.c4::yml::Parser", ptr %4, i32 0, i32 14
  store i64 0, ptr %24, align 8, !tbaa !239
  %25 = getelementptr inbounds nuw %"class.c4::yml::Parser", ptr %4, i32 0, i32 15
  %26 = call noundef nonnull align 8 dereferenceable(16) ptr @_ZN2c415basic_substringIKcEaSEDn(ptr noundef nonnull align 8 dereferenceable(16) %25, ptr null)
  %27 = getelementptr inbounds nuw %"class.c4::yml::Parser", ptr %4, i32 0, i32 16
  store i64 0, ptr %27, align 8, !tbaa !240
  %28 = getelementptr inbounds nuw %"class.c4::yml::Parser", ptr %4, i32 0, i32 17
  %29 = call noundef nonnull align 8 dereferenceable(16) ptr @_ZN2c415basic_substringIKcEaSEDn(ptr noundef nonnull align 8 dereferenceable(16) %28, ptr null)
  %30 = getelementptr inbounds nuw %"class.c4::yml::Parser", ptr %4, i32 0, i32 18
  %31 = call noundef nonnull align 8 dereferenceable(16) ptr @_ZN2c415basic_substringIcEaSEDn(ptr noundef nonnull align 8 dereferenceable(16) %30, ptr null)
  %32 = getelementptr inbounds nuw %"class.c4::yml::Parser", ptr %4, i32 0, i32 19
  store ptr null, ptr %32, align 8, !tbaa !220
  %33 = getelementptr inbounds nuw %"class.c4::yml::Parser", ptr %4, i32 0, i32 20
  store i64 0, ptr %33, align 8, !tbaa !228
  %34 = getelementptr inbounds nuw %"class.c4::yml::Parser", ptr %4, i32 0, i32 21
  store i64 0, ptr %34, align 8, !tbaa !226
  %35 = getelementptr inbounds nuw %"class.c4::yml::Parser", ptr %4, i32 0, i32 22
  %36 = call noundef nonnull align 8 dereferenceable(16) ptr @_ZN2c415basic_substringIKcEaSEDn(ptr noundef nonnull align 8 dereferenceable(16) %35, ptr null)
  ret void
}