; Function Attrs: mustprogress nofree norecurse nosync nounwind willreturn memory(argmem: write) uwtable
define void @_ZN2c43yml6Parser4_clrEv(ptr noundef nonnull writeonly align 8 captures(none) dereferenceable(2736) initializes((0, 4), (8, 56), (2496, 2504), (2544, 2625), (2632, 2736)) %0) local_unnamed_addr #10 align 2 {
  store i32 0, ptr %0, align 8, !tbaa !17
  %2 = getelementptr inbounds nuw i8, ptr %0, i64 8
  %3 = getelementptr inbounds nuw i8, ptr %0, i64 2496
  store i64 0, ptr %3, align 8, !tbaa !250
  %4 = getelementptr inbounds nuw i8, ptr %0, i64 2544
  %5 = getelementptr inbounds nuw i8, ptr %0, i64 2632
  tail call void @llvm.memset.p0.i64(ptr noundef nonnull align 8 dereferenceable(48) %2, i8 0, i64 48, i1 false)
  tail call void @llvm.memset.p0.i64(ptr noundef nonnull align 8 dereferenceable(81) %4, i8 0, i64 81, i1 false)
  tail call void @llvm.memset.p0.i64(ptr noundef nonnull align 8 dereferenceable(104) %5, i8 0, i64 104, i1 false)
  ret void
}